; Function Attrs: nounwind sspstrong uwtable
define dso_local noundef ptr @bdrv_reclaim_dirty_bitmap(ptr noundef %parent, ptr noundef %errp) local_unnamed_addr #0 {
entry:
  %0 = load ptr, ptr %parent, align 8
  %1 = load atomic i64, ptr @qemu_mutex_lock_func monotonic, align 8
  %2 = inttoptr i64 %1 to ptr
  %dirty_bitmap_mutex.i = getelementptr inbounds nuw i8, ptr %0, i64 16904
  tail call void %2(ptr noundef nonnull %dirty_bitmap_mutex.i, ptr noundef nonnull @.str.1, i32 noundef 66) #14
  %successor1.i = getelementptr inbounds nuw i8, ptr %parent, i64 24
  %3 = load ptr, ptr %successor1.i, align 8
  %tobool.not.i = icmp eq ptr %3, null
  br i1 %tobool.not.i, label %if.then.i, label %if.end.i

if.then.i:                                        ; preds = %entry
  tail call void (ptr, ptr, i32, ptr, ptr, ...) @error_setg_internal(ptr noundef %errp, ptr noundef nonnull @.str.1, i32 noundef 310, ptr noundef nonnull @__func__.bdrv_reclaim_dirty_bitmap_locked, ptr noundef nonnull @.str.13) #14
  br label %bdrv_reclaim_dirty_bitmap_locked.exit

if.end.i:                                         ; preds = %entry
  %bitmap.i = getelementptr inbounds nuw i8, ptr %parent, i64 8
  %4 = load ptr, ptr %bitmap.i, align 8
  %bitmap2.i = getelementptr inbounds nuw i8, ptr %3, i64 8
  %5 = load ptr, ptr %bitmap2.i, align 8
  tail call void @hbitmap_merge(ptr noundef %4, ptr noundef %5, ptr noundef %4) #14
  %disabled.i = getelementptr inbounds nuw i8, ptr %3, i64 48
  %6 = load i8, ptr %disabled.i, align 8
  %disabled5.i = getelementptr inbounds nuw i8, ptr %parent, i64 48
  %frombool.i = and i8 %6, 1
  store i8 %frombool.i, ptr %disabled5.i, align 8
  %busy.i = getelementptr inbounds nuw i8, ptr %parent, i64 16
  store i8 0, ptr %busy.i, align 8
  tail call fastcc void @bdrv_release_dirty_bitmap_locked(ptr noundef nonnull %3)
  store ptr null, ptr %successor1.i, align 8
  br label %bdrv_reclaim_dirty_bitmap_locked.exit

bdrv_reclaim_dirty_bitmap_locked.exit:            ; preds = %if.then.i, %if.end.i
  %retval.0.i = phi ptr [ %parent, %if.end.i ], [ null, %if.then.i ]
  %7 = load ptr, ptr %parent, align 8
  %dirty_bitmap_mutex.i3 = getelementptr inbounds nuw i8, ptr %7, i64 16904
  tail call void @qemu_mutex_unlock_impl(ptr noundef nonnull %dirty_bitmap_mutex.i3, ptr noundef nonnull @.str.1, i32 noundef 71) #14
  ret ptr %retval.0.i
}